target datalayout = "e-m:e-p270:32:32-p271:32:32-p272:64:64-i64:64-i128:128-f80:128-n8:16:32:64-S128"
target triple = "x86_64-pc-linux-gnu"

%class.ciField = type { %class.ciFlags, ptr, ptr, ptr, ptr, i32, i8, ptr, ptr, %class.ciConstant }
%class.ciFlags = type <{ i32, i8, i8, [2 x i8] }>
%class.ciConstant = type { i8, %union.anon }
%union.anon = type { i64 }

@FoldStableValues = external global i8, align 1

; Function Attrs: mustprogress nounwind uwtable
define linkonce_odr hidden noundef zeroext i1 @_ZNK7ciFlags9is_stableEv(ptr noundef nonnull align 4 dereferenceable(6) %0) #1 comdat align 2 {
  %2 = alloca ptr, align 8
  store ptr %0, ptr %2, align 8
  %3 = load ptr, ptr %2, align 8
  %4 = getelementptr inbounds %class.ciFlags, ptr %3, i32 0, i32 1
  %5 = load i8, ptr %4, align 4
  %6 = trunc i8 %5 to i1
  ret i1 %6
}

; Function Attrs: mustprogress nounwind uwtable
define linkonce_odr hidden i64 @_ZNK7ciField5flagsEv(ptr noundef nonnull align 8 dereferenceable(80) %0) #1 comdat align 2 {
  %2 = alloca %class.ciFlags, align 4
  %3 = alloca ptr, align 8
  store ptr %0, ptr %3, align 8
  %4 = load ptr, ptr %3, align 8
  %5 = getelementptr inbounds %class.ciField, ptr %4, i32 0, i32 0
  call void @llvm.memcpy.p0.p0.i64(ptr align 4 %2, ptr align 8 %5, i64 8, i1 false)
  %6 = load i64, ptr %2, align 4
  ret i64 %6
}

; Function Attrs: mustprogress nounwind uwtable
define linkonce_odr hidden void @_ZN10ciConstantC2Ev(ptr noundef nonnull align 8 dereferenceable(16) %0) unnamed_addr #1 comdat align 2 {
  %2 = alloca ptr, align 8
  store ptr %0, ptr %2, align 8
  %3 = load ptr, ptr %2, align 8
  %4 = getelementptr inbounds %class.ciConstant, ptr %3, i32 0, i32 0
  store i8 99, ptr %4, align 8
  %5 = getelementptr inbounds %class.ciConstant, ptr %3, i32 0, i32 1
  store i64 -1, ptr %5, align 8
  ret void
}

; Function Attrs: mustprogress nounwind uwtable
define linkonce_odr hidden noundef zeroext i1 @_ZNK7ciField9is_stableEv(ptr noundef nonnull align 8 dereferenceable(80) %0) #1 comdat align 2 {
  %2 = alloca ptr, align 8
  %3 = alloca %class.ciFlags, align 4
  store ptr %0, ptr %2, align 8
  %4 = load ptr, ptr %2, align 8
  %5 = call i64 @_ZNK7ciField5flagsEv(ptr noundef nonnull align 8 dereferenceable(80) %4)
  store i64 %5, ptr %3, align 4
  %6 = call noundef zeroext i1 @_ZNK7ciFlags9is_stableEv(ptr noundef nonnull align 4 dereferenceable(6) %3)
  ret i1 %6
}

; Function Attrs: mustprogress nounwind uwtable
define linkonce_odr hidden noundef ptr @_ZN8ciObject11as_instanceEv(ptr noundef nonnull align 8 dereferenceable(40) %0) #1 comdat align 2 {
  %2 = alloca ptr, align 8
  store ptr %0, ptr %2, align 8
  %3 = load ptr, ptr %2, align 8
  ret ptr %3
}

; Function Attrs: mustprogress nounwind uwtable
define hidden { i8, i64 } @_ZN7ciField17constant_value_ofEP8ciObject(ptr noundef nonnull align 8 dereferenceable(80) %0, ptr noundef %1) #1 align 2 {
  %3 = alloca %class.ciConstant, align 8
  %4 = alloca ptr, align 8
  %5 = alloca ptr, align 8
  %6 = alloca %class.ciConstant, align 8
  store ptr %0, ptr %4, align 8
  store ptr %1, ptr %5, align 8
  %7 = load ptr, ptr %4, align 8
  %8 = load ptr, ptr %5, align 8
  %9 = call noundef ptr @_ZN8ciObject11as_instanceEv(ptr noundef nonnull align 8 dereferenceable(40) %8)
  %10 = call { i8, i64 } @_ZN10ciInstance11field_valueEP7ciField(ptr noundef nonnull align 8 dereferenceable(40) %9, ptr noundef %7)
  %11 = getelementptr inbounds { i8, i64 }, ptr %6, i32 0, i32 0
  %12 = extractvalue { i8, i64 } %10, 0
  store i8 %12, ptr %11, align 8
  %13 = getelementptr inbounds { i8, i64 }, ptr %6, i32 0, i32 1
  %14 = extractvalue { i8, i64 } %10, 1
  store i64 %14, ptr %13, align 8
  %15 = load i8, ptr @FoldStableValues, align 1
  %16 = trunc i8 %15 to i1
  br i1 %16, label %17, label %22

17:                                               ; preds = %2
  %18 = call noundef zeroext i1 @_ZNK7ciField9is_stableEv(ptr noundef nonnull align 8 dereferenceable(80) %7)
  br i1 %18, label %19, label %22

19:                                               ; preds = %17
  %20 = call noundef zeroext i1 @_ZNK10ciConstant15is_null_or_zeroEv(ptr noundef nonnull align 8 dereferenceable(16) %6)
  br i1 %20, label %21, label %22

21:                                               ; preds = %19
  call void @_ZN10ciConstantC2Ev(ptr noundef nonnull align 8 dereferenceable(16) %3)
  br label %23

22:                                               ; preds = %19, %17, %2
  call void @llvm.memcpy.p0.p0.i64(ptr align 8 %3, ptr align 8 %6, i64 16, i1 false)
  br label %23

23:                                               ; preds = %22, %21
  %24 = load { i8, i64 }, ptr %3, align 8
  ret { i8, i64 } %24
}