; Function Attrs: mustprogress nounwind uwtable
define hidden { i8, i64 } @_ZN7ciField17constant_value_ofEP8ciObject(ptr noundef nonnull align 8 dereferenceable(80) %0, ptr noundef nonnull %1) local_unnamed_addr #0 align 2 {
  %3 = alloca %class.ciConstant, align 8
  %4 = tail call { i8, i64 } @_ZN10ciInstance11field_valueEP7ciField(ptr noundef nonnull align 8 dereferenceable(40) %1, ptr noundef nonnull %0) #8
  %5 = extractvalue { i8, i64 } %4, 0
  store i8 %5, ptr %3, align 8
  %6 = getelementptr inbounds i8, ptr %3, i64 8
  %7 = extractvalue { i8, i64 } %4, 1
  store i64 %7, ptr %6, align 8
  %8 = load i8, ptr @FoldStableValues, align 1
  %9 = trunc i8 %8 to i1
  br i1 %9, label %10, label %14

10:                                               ; preds = %2
  %.sroa.0.0.copyload.i.i = load i64, ptr %0, align 8
  %11 = and i64 %.sroa.0.0.copyload.i.i, 4294967296
  %.not = icmp eq i64 %11, 0
  br i1 %.not, label %14, label %12

12:                                               ; preds = %10
  %13 = call noundef zeroext i1 @_ZNK10ciConstant15is_null_or_zeroEv(ptr noundef nonnull align 8 dereferenceable(16) %3) #8
  br i1 %13, label %14, label %._crit_edge

._crit_edge:                                      ; preds = %12
  %.sroa.0.0.copyload.pre = load i8, ptr %3, align 8
  %.sroa.32.0.copyload.pre = load i64, ptr %6, align 8
  br label %14

14:                                               ; preds = %2, %10, %._crit_edge, %12
  %.sroa.32.0 = phi i64 [ -1, %12 ], [ %.sroa.32.0.copyload.pre, %._crit_edge ], [ %7, %10 ], [ %7, %2 ]
  %.sroa.0.0 = phi i8 [ 99, %12 ], [ %.sroa.0.0.copyload.pre, %._crit_edge ], [ %5, %10 ], [ %5, %2 ]
  %.fca.0.insert = insertvalue { i8, i64 } poison, i8 %.sroa.0.0, 0
  %.fca.1.insert = insertvalue { i8, i64 } %.fca.0.insert, i64 %.sroa.32.0, 1
  ret { i8, i64 } %.fca.1.insert
}